target datalayout = "e-m:e-p270:32:32-p271:32:32-p272:64:64-i64:64-i128:128-f80:128-n8:16:32:64-S128"
target triple = "x86_64-pc-linux-gnu"

%struct.AVFilterContext = type { ptr, ptr, ptr, ptr, ptr, i32, ptr, ptr, i32, ptr, ptr, i32, i32, ptr, ptr, ptr, ptr, i32, ptr, i32, i32 }
%struct.GraphMonitorContext = type { ptr, i32, i32, float, i32, i32, %struct.AVRational, i32, i32, i64, i64, [4 x i8], [4 x i8], [4 x i8], [4 x i8], [4 x i8], [4 x i8], [4 x i8], ptr, i32, i32 }
%struct.AVRational = type { i32, i32 }
%struct.AVFilterFormatsConfig = type { ptr, ptr, ptr, ptr, ptr }
%struct.AVChannelLayout = type { i32, i32, %union.anon.1, ptr }
%union.anon.1 = type { i64 }
%struct.AVFilterLink = type { ptr, ptr, ptr, ptr, i32, i32, i32, i32, %struct.AVRational, i32, i32, i32, %struct.AVChannelLayout, %struct.AVRational, ptr, i32, %struct.AVFilterFormatsConfig, %struct.AVFilterFormatsConfig }
%struct.FilterLink = type { %struct.AVFilterLink, ptr, i64, i64, i32, i32, i64, i64, i64, i64, %struct.AVRational, ptr }

; Function Attrs: alwaysinline nounwind uwtable
define internal i64 @av_inv_q(i64 %0) #6 {
  %2 = alloca %struct.AVRational, align 4
  %3 = alloca %struct.AVRational, align 4
  store i64 %0, ptr %3, align 4
  %4 = getelementptr inbounds nuw %struct.AVRational, ptr %2, i32 0, i32 0
  %5 = getelementptr inbounds nuw %struct.AVRational, ptr %3, i32 0, i32 1
  %6 = load i32, ptr %5, align 4, !tbaa !69
  store i32 %6, ptr %4, align 4, !tbaa !68
  %7 = getelementptr inbounds nuw %struct.AVRational, ptr %2, i32 0, i32 1
  %8 = getelementptr inbounds nuw %struct.AVRational, ptr %3, i32 0, i32 0
  %9 = load i32, ptr %8, align 4, !tbaa !68
  store i32 %9, ptr %7, align 4, !tbaa !69
  %10 = load i64, ptr %2, align 4
  ret i64 %10
}

; Function Attrs: inlinehint nounwind uwtable
define internal ptr @ff_filter_link(ptr noundef %0) #4 {
  %2 = alloca ptr, align 8
  store ptr %0, ptr %2, align 8, !tbaa !40
  %3 = load ptr, ptr %2, align 8, !tbaa !40
  ret ptr %3
}

; Function Attrs: nounwind uwtable
define internal i32 @config_output(ptr noundef %0) #1 {
  %2 = alloca ptr, align 8
  %3 = alloca ptr, align 8
  %4 = alloca ptr, align 8
  %5 = alloca %struct.AVRational, align 4
  %6 = alloca %struct.AVRational, align 4
  store ptr %0, ptr %2, align 8, !tbaa !40
  call void @llvm.lifetime.start.p0(i64 8, ptr %3) #11
  %7 = load ptr, ptr %2, align 8, !tbaa !40
  %8 = call ptr @ff_filter_link(ptr noundef %7)
  store ptr %8, ptr %3, align 8, !tbaa !57
  call void @llvm.lifetime.start.p0(i64 8, ptr %4) #11
  %9 = load ptr, ptr %2, align 8, !tbaa !40
  %10 = getelementptr inbounds nuw %struct.AVFilterLink, ptr %9, i32 0, i32 0
  %11 = load ptr, ptr %10, align 8, !tbaa !59
  %12 = getelementptr inbounds nuw %struct.AVFilterContext, ptr %11, i32 0, i32 9
  %13 = load ptr, ptr %12, align 8, !tbaa !9
  store ptr %13, ptr %4, align 8, !tbaa !22
  %14 = load ptr, ptr %4, align 8, !tbaa !22
  %15 = getelementptr inbounds nuw %struct.GraphMonitorContext, ptr %14, i32 0, i32 11
  %16 = getelementptr inbounds [4 x i8], ptr %15, i64 0, i64 2
  store i8 -1, ptr %16, align 2, !tbaa !63
  %17 = load ptr, ptr %4, align 8, !tbaa !22
  %18 = getelementptr inbounds nuw %struct.GraphMonitorContext, ptr %17, i32 0, i32 11
  %19 = getelementptr inbounds [4 x i8], ptr %18, i64 0, i64 1
  store i8 -1, ptr %19, align 1, !tbaa !63
  %20 = load ptr, ptr %4, align 8, !tbaa !22
  %21 = getelementptr inbounds nuw %struct.GraphMonitorContext, ptr %20, i32 0, i32 11
  %22 = getelementptr inbounds [4 x i8], ptr %21, i64 0, i64 0
  store i8 -1, ptr %22, align 8, !tbaa !63
  %23 = load ptr, ptr %4, align 8, !tbaa !22
  %24 = getelementptr inbounds nuw %struct.GraphMonitorContext, ptr %23, i32 0, i32 12
  %25 = getelementptr inbounds [4 x i8], ptr %24, i64 0, i64 1
  store i8 -1, ptr %25, align 1, !tbaa !63
  %26 = load ptr, ptr %4, align 8, !tbaa !22
  %27 = getelementptr inbounds nuw %struct.GraphMonitorContext, ptr %26, i32 0, i32 12
  %28 = getelementptr inbounds [4 x i8], ptr %27, i64 0, i64 0
  store i8 -1, ptr %28, align 4, !tbaa !63
  %29 = load ptr, ptr %4, align 8, !tbaa !22
  %30 = getelementptr inbounds nuw %struct.GraphMonitorContext, ptr %29, i32 0, i32 13
  %31 = getelementptr inbounds [4 x i8], ptr %30, i64 0, i64 0
  store i8 -1, ptr %31, align 8, !tbaa !63
  %32 = load ptr, ptr %4, align 8, !tbaa !22
  %33 = getelementptr inbounds nuw %struct.GraphMonitorContext, ptr %32, i32 0, i32 14
  %34 = getelementptr inbounds [4 x i8], ptr %33, i64 0, i64 1
  store i8 -1, ptr %34, align 1, !tbaa !63
  %35 = load ptr, ptr %4, align 8, !tbaa !22
  %36 = getelementptr inbounds nuw %struct.GraphMonitorContext, ptr %35, i32 0, i32 15
  %37 = getelementptr inbounds [4 x i8], ptr %36, i64 0, i64 2
  store i8 -1, ptr %37, align 2, !tbaa !63
  %38 = load ptr, ptr %4, align 8, !tbaa !22
  %39 = getelementptr inbounds nuw %struct.GraphMonitorContext, ptr %38, i32 0, i32 16
  %40 = getelementptr inbounds [4 x i8], ptr %39, i64 0, i64 2
  store i8 -128, ptr %40, align 2, !tbaa !63
  %41 = load ptr, ptr %4, align 8, !tbaa !22
  %42 = getelementptr inbounds nuw %struct.GraphMonitorContext, ptr %41, i32 0, i32 16
  %43 = getelementptr inbounds [4 x i8], ptr %42, i64 0, i64 1
  store i8 -128, ptr %43, align 1, !tbaa !63
  %44 = load ptr, ptr %4, align 8, !tbaa !22
  %45 = getelementptr inbounds nuw %struct.GraphMonitorContext, ptr %44, i32 0, i32 16
  %46 = getelementptr inbounds [4 x i8], ptr %45, i64 0, i64 0
  store i8 -128, ptr %46, align 4, !tbaa !63
  %47 = load ptr, ptr %4, align 8, !tbaa !22
  %48 = getelementptr inbounds nuw %struct.GraphMonitorContext, ptr %47, i32 0, i32 9
  store i64 -9223372036854775808, ptr %48, align 8, !tbaa !54
  %49 = load ptr, ptr %4, align 8, !tbaa !22
  %50 = getelementptr inbounds nuw %struct.GraphMonitorContext, ptr %49, i32 0, i32 10
  store i64 -9223372036854775808, ptr %50, align 8, !tbaa !55
  %51 = load ptr, ptr %4, align 8, !tbaa !22
  %52 = getelementptr inbounds nuw %struct.GraphMonitorContext, ptr %51, i32 0, i32 1
  %53 = load i32, ptr %52, align 8, !tbaa !64
  %54 = load ptr, ptr %2, align 8, !tbaa !40
  %55 = getelementptr inbounds nuw %struct.AVFilterLink, ptr %54, i32 0, i32 6
  store i32 %53, ptr %55, align 8, !tbaa !65
  %56 = load ptr, ptr %4, align 8, !tbaa !22
  %57 = getelementptr inbounds nuw %struct.GraphMonitorContext, ptr %56, i32 0, i32 2
  %58 = load i32, ptr %57, align 4, !tbaa !66
  %59 = load ptr, ptr %2, align 8, !tbaa !40
  %60 = getelementptr inbounds nuw %struct.AVFilterLink, ptr %59, i32 0, i32 7
  store i32 %58, ptr %60, align 4, !tbaa !67
  %61 = load ptr, ptr %2, align 8, !tbaa !40
  %62 = getelementptr inbounds nuw %struct.AVFilterLink, ptr %61, i32 0, i32 8
  %63 = getelementptr inbounds nuw %struct.AVRational, ptr %5, i32 0, i32 0
  store i32 1, ptr %63, align 4, !tbaa !68
  %64 = getelementptr inbounds nuw %struct.AVRational, ptr %5, i32 0, i32 1
  store i32 1, ptr %64, align 4, !tbaa !69
  call void @llvm.memcpy.p0.p0.i64(ptr align 8 %62, ptr align 4 %5, i64 8, i1 false), !tbaa.struct !70
  %65 = load ptr, ptr %3, align 8, !tbaa !57
  %66 = getelementptr inbounds nuw %struct.FilterLink, ptr %65, i32 0, i32 10
  %67 = load ptr, ptr %4, align 8, !tbaa !22
  %68 = getelementptr inbounds nuw %struct.GraphMonitorContext, ptr %67, i32 0, i32 6
  call void @llvm.memcpy.p0.p0.i64(ptr align 8 %66, ptr align 4 %68, i64 8, i1 false), !tbaa.struct !70
  %69 = load ptr, ptr %2, align 8, !tbaa !40
  %70 = getelementptr inbounds nuw %struct.AVFilterLink, ptr %69, i32 0, i32 13
  call void @llvm.lifetime.start.p0(i64 8, ptr %6) #11
  %71 = load ptr, ptr %4, align 8, !tbaa !22
  %72 = getelementptr inbounds nuw %struct.GraphMonitorContext, ptr %71, i32 0, i32 6
  %73 = load i64, ptr %72, align 4
  %74 = call i64 @av_inv_q(i64 %73)
  store i64 %74, ptr %6, align 4
  call void @llvm.memcpy.p0.p0.i64(ptr align 8 %70, ptr align 4 %6, i64 8, i1 false), !tbaa.struct !70
  call void @llvm.lifetime.end.p0(i64 8, ptr %6) #11
  call void @llvm.lifetime.end.p0(i64 8, ptr %4) #11
  call void @llvm.lifetime.end.p0(i64 8, ptr %3) #11
  ret i32 0
}