; Function Attrs: mustprogress nofree norecurse nosync nounwind willreturn memory(readwrite, inaccessiblemem: none) uwtable
define internal noundef i32 @config_output(ptr noundef captures(none) initializes((40, 56), (96, 104), (264, 272)) %0) #3 {
  %2 = load ptr, ptr %0, align 8, !tbaa !85
  %3 = getelementptr inbounds nuw i8, ptr %2, i64 72
  %4 = load ptr, ptr %3, align 8, !tbaa !4
  %5 = getelementptr inbounds nuw i8, ptr %4, i64 64
  %6 = getelementptr inbounds nuw i8, ptr %4, i64 66
  store i8 -1, ptr %6, align 2, !tbaa !56
  %7 = getelementptr inbounds nuw i8, ptr %4, i64 65
  store i8 -1, ptr %7, align 1, !tbaa !56
  store i8 -1, ptr %5, align 8, !tbaa !56
  %8 = getelementptr inbounds nuw i8, ptr %4, i64 68
  %9 = getelementptr inbounds nuw i8, ptr %4, i64 69
  store i8 -1, ptr %9, align 1, !tbaa !56
  store i8 -1, ptr %8, align 4, !tbaa !56
  %10 = getelementptr inbounds nuw i8, ptr %4, i64 72
  store i8 -1, ptr %10, align 8, !tbaa !56
  %11 = getelementptr inbounds nuw i8, ptr %4, i64 77
  store i8 -1, ptr %11, align 1, !tbaa !56
  %12 = getelementptr inbounds nuw i8, ptr %4, i64 82
  store i8 -1, ptr %12, align 2, !tbaa !56
  %13 = getelementptr inbounds nuw i8, ptr %4, i64 84
  %14 = getelementptr inbounds nuw i8, ptr %4, i64 86
  store i8 -128, ptr %14, align 2, !tbaa !56
  %15 = getelementptr inbounds nuw i8, ptr %4, i64 85
  store i8 -128, ptr %15, align 1, !tbaa !56
  store i8 -128, ptr %13, align 4, !tbaa !56
  %16 = getelementptr inbounds nuw i8, ptr %4, i64 48
  store i64 -9223372036854775808, ptr %16, align 8, !tbaa !45
  %17 = getelementptr inbounds nuw i8, ptr %4, i64 56
  store i64 -9223372036854775808, ptr %17, align 8, !tbaa !46
  %18 = getelementptr inbounds nuw i8, ptr %4, i64 8
  %19 = load i32, ptr %18, align 8, !tbaa !91
  %20 = getelementptr inbounds nuw i8, ptr %0, i64 40
  store i32 %19, ptr %20, align 8, !tbaa !48
  %21 = getelementptr inbounds nuw i8, ptr %4, i64 12
  %22 = load i32, ptr %21, align 4, !tbaa !92
  %23 = getelementptr inbounds nuw i8, ptr %0, i64 44
  store i32 %22, ptr %23, align 4, !tbaa !54
  %24 = getelementptr inbounds nuw i8, ptr %0, i64 48
  store i32 1, ptr %24, align 8, !tbaa !60
  %.sroa.2.0..sroa_idx = getelementptr inbounds nuw i8, ptr %0, i64 52
  store i32 1, ptr %.sroa.2.0..sroa_idx, align 4, !tbaa !60
  %25 = getelementptr inbounds nuw i8, ptr %0, i64 264
  %26 = getelementptr inbounds nuw i8, ptr %4, i64 28
  %27 = load i64, ptr %26, align 4
  store i64 %27, ptr %25, align 8
  %28 = getelementptr inbounds nuw i8, ptr %0, i64 96
  %29 = load i64, ptr %26, align 4
  %.sroa.01.0.insert.insert.i = tail call i64 @llvm.fshl.i64(i64 %29, i64 %29, i64 32)
  store i64 %.sroa.01.0.insert.insert.i, ptr %28, align 8
  ret i32 0
}